; Function Attrs: mustprogress uwtable
define internal fastcc void @_ZNK12_GLOBAL__N_16Helper18GetInfoDestinationB5cxx11EPK25cmInstallCommandArguments(ptr dead_on_unwind noalias writable align 8 %0, ptr nocapture noundef nonnull readonly align 8 dereferenceable(48) %1) unnamed_addr #5 align 2 personality ptr @__gxx_personality_v0 {
  %3 = alloca %"class.std::__cxx11::basic_string", align 8
  %4 = alloca %"class.std::__cxx11::basic_string", align 8
  %5 = alloca %"class.std::allocator.9", align 1
  %6 = alloca %"class.std::__cxx11::basic_string", align 8
  %7 = alloca %"class.std::__cxx11::basic_string", align 8
  call void @_ZNSaIcEC1Ev(ptr noundef nonnull align 1 dereferenceable(1) %5) #19
  %8 = invoke noundef ptr @_ZNSt7__cxx1112basic_stringIcSt11char_traitsIcESaIcEE13_M_local_dataEv(ptr noundef nonnull align 8 dereferenceable(32) %4)
          to label %.noexc unwind label %23

.noexc:                                           ; preds = %2
  invoke void @_ZNSt7__cxx1112basic_stringIcSt11char_traitsIcESaIcEE12_Alloc_hiderC1EPcRKS3_(ptr noundef nonnull align 8 dereferenceable(8) %4, ptr noundef %8, ptr noundef nonnull align 1 dereferenceable(1) %5)
          to label %.noexc9 unwind label %23

.noexc9:                                          ; preds = %.noexc
  invoke void @_ZNSt7__cxx1112basic_stringIcSt11char_traitsIcESaIcEE12_M_constructIPKcEEvT_S8_St20forward_iterator_tag(ptr noundef nonnull align 8 dereferenceable(32) %4, ptr noundef nonnull @.str.141, ptr noundef nonnull getelementptr inbounds ([22 x i8], ptr @.str.141, i64 0, i64 21))
          to label %_ZNSt7__cxx1112basic_stringIcSt11char_traitsIcESaIcEEC2IS3_EEPKcRKS3_.exit unwind label %9

9:                                                ; preds = %.noexc9
  %10 = landingpad { ptr, i32 }
          cleanup
  call void @_ZNSaIcED2Ev(ptr noundef nonnull align 1 dereferenceable(1) %4) #19
  br label %.body

_ZNSt7__cxx1112basic_stringIcSt11char_traitsIcESaIcEEC2IS3_EEPKcRKS3_.exit: ; preds = %.noexc9
  invoke fastcc void @_ZNK12_GLOBAL__N_16Helper22GetDataRootDestinationB5cxx11EPK25cmInstallCommandArguments(ptr dead_on_unwind noalias nonnull writable align 8 %7, ptr noundef nonnull align 8 dereferenceable(48) %1)
          to label %11 unwind label %25

11:                                               ; preds = %_ZNSt7__cxx1112basic_stringIcSt11char_traitsIcESaIcEEC2IS3_EEPKcRKS3_.exit
  %12 = invoke noundef nonnull align 8 dereferenceable(32) ptr @_ZNSt7__cxx1112basic_stringIcSt11char_traitsIcESaIcEE6appendEPKc(ptr noundef nonnull align 8 dereferenceable(32) %7, ptr noundef nonnull @.str.142)
          to label %13 unwind label %27

13:                                               ; preds = %11
  call void @_ZNSt7__cxx1112basic_stringIcSt11char_traitsIcESaIcEEC1EOS4_(ptr noundef nonnull align 8 dereferenceable(32) %6, ptr noundef nonnull align 8 dereferenceable(32) %12) #19
  call void @llvm.lifetime.start.p0(i64 32, ptr nonnull %3)
  %14 = getelementptr inbounds i8, ptr %1, i64 8
  %15 = load ptr, ptr %14, align 8, !noalias !621
  %16 = invoke noundef nonnull align 8 dereferenceable(32) ptr @_ZNK10cmMakefile17GetSafeDefinitionERKNSt7__cxx1112basic_stringIcSt11char_traitsIcESaIcEEE(ptr noundef nonnull align 8 dereferenceable(3520) %15, ptr noundef nonnull align 8 dereferenceable(32) %4)
          to label %.noexc11 unwind label %29

.noexc11:                                         ; preds = %13
  invoke void @_ZNSt7__cxx1112basic_stringIcSt11char_traitsIcESaIcEEC1ERKS4_(ptr noundef nonnull align 8 dereferenceable(32) %3, ptr noundef nonnull align 8 dereferenceable(32) %16)
          to label %.noexc12 unwind label %29

.noexc12:                                         ; preds = %.noexc11
  %17 = call noundef zeroext i1 @_ZNKSt7__cxx1112basic_stringIcSt11char_traitsIcESaIcEE5emptyEv(ptr noundef nonnull align 8 dereferenceable(32) %3) #19, !noalias !621
  br i1 %17, label %19, label %18

18:                                               ; preds = %.noexc12
  call void @_ZNSt7__cxx1112basic_stringIcSt11char_traitsIcESaIcEEC1EOS4_(ptr noundef nonnull align 8 dereferenceable(32) %0, ptr noundef nonnull align 8 dereferenceable(32) %3) #19
  br label %22

19:                                               ; preds = %.noexc12
  invoke void @_ZNSt7__cxx1112basic_stringIcSt11char_traitsIcESaIcEEC1ERKS4_(ptr noundef nonnull align 8 dereferenceable(32) %0, ptr noundef nonnull align 8 dereferenceable(32) %6)
          to label %22 unwind label %20

20:                                               ; preds = %19
  %21 = landingpad { ptr, i32 }
          cleanup
  call void @_ZNSt7__cxx1112basic_stringIcSt11char_traitsIcESaIcEED1Ev(ptr noundef nonnull align 8 dereferenceable(32) %3) #19
  br label %.body13

22:                                               ; preds = %19, %18
  call void @_ZNSt7__cxx1112basic_stringIcSt11char_traitsIcESaIcEED1Ev(ptr noundef nonnull align 8 dereferenceable(32) %3) #19
  call void @llvm.lifetime.end.p0(i64 32, ptr nonnull %3)
  call void @_ZNSt7__cxx1112basic_stringIcSt11char_traitsIcESaIcEED1Ev(ptr noundef nonnull align 8 dereferenceable(32) %6) #19
  call void @_ZNSt7__cxx1112basic_stringIcSt11char_traitsIcESaIcEED1Ev(ptr noundef nonnull align 8 dereferenceable(32) %7) #19
  call void @_ZNSt7__cxx1112basic_stringIcSt11char_traitsIcESaIcEED1Ev(ptr noundef nonnull align 8 dereferenceable(32) %4) #19
  call void @_ZNSaIcED1Ev(ptr noundef nonnull align 1 dereferenceable(1) %5) #19
  ret void

23:                                               ; preds = %.noexc, %2
  %24 = landingpad { ptr, i32 }
          cleanup
  br label %.body

25:                                               ; preds = %_ZNSt7__cxx1112basic_stringIcSt11char_traitsIcESaIcEEC2IS3_EEPKcRKS3_.exit
  %26 = landingpad { ptr, i32 }
          cleanup
  br label %32

27:                                               ; preds = %11
  %28 = landingpad { ptr, i32 }
          cleanup
  br label %31

29:                                               ; preds = %.noexc11, %13
  %30 = landingpad { ptr, i32 }
          cleanup
  br label %.body13

.body13:                                          ; preds = %20, %29
  %eh.lpad-body14 = phi { ptr, i32 } [ %30, %29 ], [ %21, %20 ]
  call void @_ZNSt7__cxx1112basic_stringIcSt11char_traitsIcESaIcEED1Ev(ptr noundef nonnull align 8 dereferenceable(32) %6) #19
  br label %31

31:                                               ; preds = %.body13, %27
  %.pn = phi { ptr, i32 } [ %eh.lpad-body14, %.body13 ], [ %28, %27 ]
  call void @_ZNSt7__cxx1112basic_stringIcSt11char_traitsIcESaIcEED1Ev(ptr noundef nonnull align 8 dereferenceable(32) %7) #19
  br label %32

32:                                               ; preds = %31, %25
  %.pn.pn = phi { ptr, i32 } [ %.pn, %31 ], [ %26, %25 ]
  call void @_ZNSt7__cxx1112basic_stringIcSt11char_traitsIcESaIcEED1Ev(ptr noundef nonnull align 8 dereferenceable(32) %4) #19
  br label %.body

.body:                                            ; preds = %23, %9, %32
  %.pn.pn.pn = phi { ptr, i32 } [ %.pn.pn, %32 ], [ %24, %23 ], [ %10, %9 ]
  call void @_ZNSaIcED1Ev(ptr noundef nonnull align 1 dereferenceable(1) %5) #19
  resume { ptr, i32 } %.pn.pn.pn
}